(dp0
S'resi_atom_type'
p1
(dp2
S'CYS'
p3
(dp4
S'C'
p5
(lp6
g5
aF0.55
asS'OXT'
p7
(lp8
S'O'
p9
aF-0.55
asS'H'
p10
(lp11
g10
aF0.25
asS'CA'
p12
(lp13
S'CH1E'
p14
aF0.1
asg9
(lp15
g9
aF-0.55
asS'N'
p16
(lp17
S'NH1'
p18
aF-0.35
asS'CB'
p19
(lp20
S'CH2E'
p21
aF0.19
asS'SG'
p22
(lp23
S'SH1E'
p24
aF-0.19
assS'ASP'
p25
(dp26
g5
(lp27
g5
aF0.55
asg7
(lp28
g9
aF-0.55
asg10
(lp29
g10
aF0.25
asS'CA'
p30
(lp31
S'CH1E'
p32
aF0.1
asS'CG'
p33
(lp34
g5
aF0.36
asg9
(lp35
g9
aF-0.55
asg16
(lp36
S'NH1'
p37
aF-0.35
asS'OD1'
p38
(lp39
S'OC'
p40
aF-0.6
asS'OD2'
p41
(lp42
S'OC'
p43
aF-0.6
asS'CB'
p44
(lp45
S'CH2E'
p46
aF-0.16
assS'SER'
p47
(dp48
g5
(lp49
g5
aF0.55
asS'OG'
p50
(lp51
S'OH1'
p52
aF-0.65
asg10
(lp53
g10
aF0.25
asS'CA'
p54
(lp55
S'CH1E'
p56
aF0.1
asg9
(lp57
g9
aF-0.55
asg16
(lp58
S'NH1'
p59
aF-0.35
asg7
(lp60
g9
aF-0.55
asS'CB'
p61
(lp62
S'CH2E'
p63
aF0.25
asS'HG'
p64
(lp65
g10
aF0.4
assS'GLN'
p66
(dp67
g5
(lp68
g5
aF0.55
asg7
(lp69
g9
aF-0.55
asg10
(lp70
g10
aF0.25
asS'CA'
p71
(lp72
S'CH1E'
p73
aF0.1
asS'CG'
p74
(lp75
S'CH2E'
p76
aF0.0
asg9
(lp77
g9
aF-0.55
asS'CD'
p78
(lp79
g5
aF0.55
asS'CB'
p80
(lp81
S'CH2E'
p82
aF0.0
asS'HE22'
p83
(lp84
g10
aF0.3
asS'HE21'
p85
(lp86
g10
aF0.3
asg16
(lp87
S'NH1'
p88
aF-0.35
asS'NE2'
p89
(lp90
S'NH2'
p91
aF-0.6
asS'OE1'
p92
(lp93
g9
aF-0.55
assS'LYS'
p94
(dp95
g5
(lp96
g5
aF0.55
asg7
(lp97
g9
aF-0.55
asg10
(lp98
g10
aF0.25
asS'CA'
p99
(lp100
S'CH1E'
p101
aF0.1
asS'HZ2'
p102
(lp103
S'HC'
p104
aF0.35
asS'CG'
p105
(lp106
S'CH2E'
p107
aF0.0
asS'CE'
p108
(lp109
S'CH2E'
p110
aF0.25
asS'CD'
p111
(lp112
S'CH2E'
p113
aF0.0
asS'NZ'
p114
(lp115
S'NH3'
p116
aF-0.3
asS'HZ1'
p117
(lp118
S'HC'
p119
aF0.35
asg9
(lp120
g9
aF-0.55
asS'HZ3'
p121
(lp122
S'HC'
p123
aF0.35
asS'CB'
p124
(lp125
S'CH2E'
p126
aF0.0
asg16
(lp127
S'NH1'
p128
aF-0.35
assS'ILE'
p129
(dp130
g5
(lp131
g5
aF0.55
asg7
(lp132
g9
aF-0.55
asg10
(lp133
g10
aF0.25
asS'CA'
p134
(lp135
S'CH1E'
p136
aF0.1
asg9
(lp137
g9
aF-0.55
asg16
(lp138
S'NH1'
p139
aF-0.35
asS'CD'
p140
(lp141
S'CH3E'
p142
aF0.0
asS'CD1'
p143
(lp144
S'CH3E'
p145
aF0.0
asS'CB'
p146
(lp147
S'CH1E'
p148
aF0.0
asS'CG1'
p149
(lp150
S'CH2E'
p151
aF0.0
asS'CG2'
p152
(lp153
S'CH3E'
p154
aF0.0
assS'PRO'
p155
(dp156
g5
(lp157
g5
aF0.55
asg7
(lp158
g9
aF-0.55
asS'CB'
p159
(lp160
S'CH2E'
p161
aF0.0
asS'CA'
p162
(lp163
S'CH1E'
p164
aF0.1
asS'CG'
p165
(lp166
S'CH2E'
p167
aF0.0
asg9
(lp168
g9
aF-0.55
asS'CD'
p169
(lp170
S'CH2E'
p171
aF0.1
asg16
(lp172
g16
aF-0.2
assS'THR'
p173
(dp174
g5
(lp175
g5
aF0.55
asS'CG2'
p176
(lp177
S'CH3E'
p178
aF0.0
asg7
(lp179
g9
aF-0.55
asg10
(lp180
g10
aF0.25
asS'CA'
p181
(lp182
S'CH1E'
p183
aF0.1
asS'OG1'
p184
(lp185
S'OH1'
p186
aF-0.65
asg9
(lp187
g9
aF-0.55
asS'HG1'
p188
(lp189
g10
aF0.4
asS'CB'
p190
(lp191
S'CH1E'
p192
aF0.25
asg16
(lp193
S'NH1'
p194
aF-0.35
assS'PHE'
p195
(dp196
g5
(lp197
g5
aF0.55
asS'CE1'
p198
(lp199
S'CR1E'
p200
aF0.0
asg7
(lp201
g9
aF-0.55
asg10
(lp202
g10
aF0.25
asS'CA'
p203
(lp204
S'CH1E'
p205
aF0.1
asS'CG'
p206
(lp207
g5
aF0.0
asg9
(lp208
g9
aF-0.55
asg16
(lp209
S'NH1'
p210
aF-0.35
asS'CZ'
p211
(lp212
S'CR1E'
p213
aF0.0
asS'CD1'
p214
(lp215
S'CR1E'
p216
aF0.0
asS'CD2'
p217
(lp218
S'CR1E'
p219
aF0.0
asS'CB'
p220
(lp221
S'CH2E'
p222
aF0.0
asS'CE2'
p223
(lp224
S'CR1E'
p225
aF0.0
assS'ALA'
p226
(dp227
g5
(lp228
g5
aF0.55
asg7
(lp229
g9
aF-0.55
asg10
(lp230
g10
aF0.25
asS'CA'
p231
(lp232
S'CH1E'
p233
aF0.1
asg9
(lp234
g9
aF-0.55
asg16
(lp235
S'NH1'
p236
aF-0.35
asS'CB'
p237
(lp238
S'CH3E'
p239
aF0.0
assS'GLY'
p240
(dp241
g5
(lp242
g5
aF0.55
asg7
(lp243
g9
aF-0.55
asg10
(lp244
g10
aF0.25
asS'CA'
p245
(lp246
S'CH2E'
p247
aF0.1
asg9
(lp248
g9
aF-0.55
asg16
(lp249
S'NH1'
p250
aF-0.35
assS'HIS'
p251
(dp252
g5
(lp253
g5
aF0.55
asS'CE1'
p254
(lp255
S'CR1E'
p256
aF0.3
asS'HD1'
p257
(lp258
g10
aF0.3
asg7
(lp259
g9
aF-0.55
asg10
(lp260
g10
aF0.25
asS'CA'
p261
(lp262
S'CH1E'
p263
aF0.1
asS'CG'
p264
(lp265
g5
aF0.1
asg9
(lp266
g9
aF-0.55
asg16
(lp267
S'NH1'
p268
aF-0.35
asS'CD2'
p269
(lp270
S'CR1E'
p271
aF0.1
asS'CB'
p272
(lp273
S'CH2E'
p274
aF0.0
asS'ND1'
p275
(lp276
S'NH1'
p277
aF-0.4
asS'NE2'
p278
(lp279
S'NR'
p280
aF-0.4
assS'GLU'
p281
(dp282
g5
(lp283
g5
aF0.55
asg7
(lp284
g9
aF-0.55
asg10
(lp285
g10
aF0.25
asS'CA'
p286
(lp287
S'CH1E'
p288
aF0.1
asS'CG'
p289
(lp290
S'CH2E'
p291
aF-0.16
asg9
(lp292
g9
aF-0.55
asS'CD'
p293
(lp294
g5
aF0.36
asS'CB'
p295
(lp296
S'CH2E'
p297
aF0.0
asg16
(lp298
S'NH1'
p299
aF-0.35
asS'OE2'
p300
(lp301
S'OC'
p302
aF-0.6
asS'OE1'
p303
(lp304
S'OC'
p305
aF-0.6
assS'LEU'
p306
(dp307
g5
(lp308
g5
aF0.55
asg7
(lp309
g9
aF-0.55
asg10
(lp310
g10
aF0.25
asS'CA'
p311
(lp312
S'CH1E'
p313
aF0.1
asS'CG'
p314
(lp315
S'CH1E'
p316
aF0.0
asg9
(lp317
g9
aF-0.55
asg16
(lp318
S'NH1'
p319
aF-0.35
asS'CD1'
p320
(lp321
S'CH3E'
p322
aF0.0
asS'CD2'
p323
(lp324
S'CH3E'
p325
aF0.0
asS'CB'
p326
(lp327
S'CH2E'
p328
aF0.0
assS'ARG'
p329
(dp330
g5
(lp331
g5
aF0.55
asg7
(lp332
g9
aF-0.55
asg10
(lp333
g10
aF0.25
asS'CA'
p334
(lp335
S'CH1E'
p336
aF0.1
asS'NH2'
p337
(lp338
S'NC2'
p339
aF-0.45
asS'CG'
p340
(lp341
S'CH2E'
p342
aF0.0
asS'NE'
p343
(lp344
S'NH1'
p345
aF-0.4
asg9
(lp346
g9
aF-0.55
asS'CD'
p347
(lp348
S'CH2E'
p349
aF0.1
asS'HH22'
p350
(lp351
S'HC'
p352
aF0.35
asS'CZ'
p353
(lp354
g5
aF0.5
asS'HH21'
p355
(lp356
S'HC'
p357
aF0.35
asS'NH1'
p358
(lp359
S'NC2'
p360
aF-0.45
asS'HH12'
p361
(lp362
S'HC'
p363
aF0.35
asS'HH11'
p364
(lp365
S'HC'
p366
aF0.35
asS'CB'
p367
(lp368
S'CH2E'
p369
aF0.0
asg16
(lp370
S'NH1'
p371
aF-0.35
asS'HE'
p372
(lp373
g10
aF0.3
assS'TRP'
p374
(dp375
g5
(lp376
g5
aF0.55
asS'HE1'
p377
(lp378
g10
aF0.3
asS'CZ2'
p379
(lp380
S'CR1E'
p381
aF0.0
asg10
(lp382
g10
aF0.25
asS'CA'
p383
(lp384
S'CH1E'
p385
aF0.1
asS'CZ3'
p386
(lp387
S'CR1E'
p388
aF0.0
asS'CG'
p389
(lp390
g5
aF-0.03
asg9
(lp391
g9
aF-0.55
asg16
(lp392
S'NH1'
p393
aF-0.35
asg7
(lp394
g9
aF-0.55
asS'CH2'
p395
(lp396
S'CR1E'
p397
aF0.0
asS'CE3'
p398
(lp399
S'CR1E'
p400
aF-0.03
asS'CE2'
p401
(lp402
S'CTRP'
p403
aF-0.04
asS'CD2'
p404
(lp405
S'CTRP'
p406
aF0.1
asS'CB'
p407
(lp408
S'CH2E'
p409
aF0.0
asS'NE1'
p410
(lp411
S'NH1'
p412
aF-0.36
asS'CD1'
p413
(lp414
S'CR1E'
p415
aF0.06
assS'VAL'
p416
(dp417
g5
(lp418
g5
aF0.55
asg7
(lp419
g9
aF-0.55
asg10
(lp420
g10
aF0.25
asS'CA'
p421
(lp422
S'CH1E'
p423
aF0.1
asg9
(lp424
g9
aF-0.55
asg16
(lp425
S'NH1'
p426
aF-0.35
asS'CB'
p427
(lp428
S'CH1E'
p429
aF0.0
asS'CG1'
p430
(lp431
S'CH3E'
p432
aF0.0
asS'CG2'
p433
(lp434
S'CH3E'
p435
aF0.0
assS'ASN'
p436
(dp437
g5
(lp438
g5
aF0.55
asS'HD22'
p439
(lp440
g10
aF0.3
asS'HD21'
p441
(lp442
g10
aF0.3
asg7
(lp443
g9
aF-0.55
asg10
(lp444
g10
aF0.25
asS'CA'
p445
(lp446
S'CH1E'
p447
aF0.1
asS'CG'
p448
(lp449
g5
aF0.55
asg9
(lp450
g9
aF-0.55
asg16
(lp451
S'NH1'
p452
aF-0.35
asS'OD1'
p453
(lp454
g9
aF-0.55
asS'ND2'
p455
(lp456
S'NH2'
p457
aF-0.6
asS'CB'
p458
(lp459
S'CH2E'
p460
aF0.0
assS'TYR'
p461
(dp462
g5
(lp463
g5
aF0.55
asS'CD2'
p464
(lp465
S'CR1E'
p466
aF0.0
asS'OH'
p467
(lp468
S'OH1'
p469
aF-0.65
asg7
(lp470
g9
aF-0.55
asg10
(lp471
g10
aF0.25
asS'CA'
p472
(lp473
S'CH1E'
p474
aF0.1
asS'CG'
p475
(lp476
g5
aF0.0
asg9
(lp477
g9
aF-0.55
asg16
(lp478
S'NH1'
p479
aF-0.35
asS'CZ'
p480
(lp481
g5
aF0.25
asS'HH'
p482
(lp483
g10
aF0.4
asS'CD1'
p484
(lp485
S'CR1E'
p486
aF0.0
asS'CE1'
p487
(lp488
S'CR1E'
p489
aF0.0
asS'CB'
p490
(lp491
S'CH2E'
p492
aF0.0
asS'CE2'
p493
(lp494
S'CR1E'
p495
aF0.0
assS'MET'
p496
(dp497
g5
(lp498
g5
aF0.55
asg7
(lp499
g9
aF-0.55
asg10
(lp500
g10
aF0.25
asS'CA'
p501
(lp502
S'CH1E'
p503
aF0.1
asS'CG'
p504
(lp505
S'CH2E'
p506
aF0.06
asS'CE'
p507
(lp508
S'CH3E'
p509
aF0.06
asg16
(lp510
S'NH1'
p511
aF-0.35
asg9
(lp512
g9
aF-0.55
asS'CB'
p513
(lp514
S'CH2E'
p515
aF0.0
asS'SD'
p516
(lp517
S'S'
p518
aF-0.12
asssS'atom_type'
p519
(dp520
g200
(dp521
S'rmin'
p522
F2.1
sS'emin'
p523
F-0.12
ssg5
(dp524
g522
F2.1
sg523
F-0.12
ssg24
(dp525
g522
F1.89
sg523
F-0.043
ssg10
(dp526
g522
F0.8
sg523
F-0.0498
ssg339
(dp527
g522
F1.6
sg523
F-0.2384
ssg91
(dp528
g522
F1.6
sg523
F-0.2384
ssg40
(dp529
g522
F1.6
sg523
F-0.6469
ssg518
(dp530
g522
F1.89
sg523
F-0.043
ssg9
(dp531
g522
F1.6
sg523
F-0.1591
ssg16
(dp532
g522
F1.6
sg523
F-0.2384
ssg142
(dp533
g522
F2.165
sg523
F-0.1811
ssg21
(dp534
g522
F2.235
sg523
F-0.1142
ssg18
(dp535
g522
F1.6
sg523
F-0.2384
ssg116
(dp536
g522
F1.6
sg523
F-0.2384
ssg14
(dp537
g522
F2.365
sg523
F-0.0486
ssg104
(dp538
g522
F0.6
sg523
F-0.0498
ssg280
(dp539
g522
F1.6
sg523
F-0.2384
ssg403
(dp540
g522
F2.1
sg523
F-0.12
ssg52
(dp541
g522
F1.6
sg523
F-0.1591
sss.